target datalayout = "e-m:e-p270:32:32-p271:32:32-p272:64:64-i64:64-i128:128-f80:128-n8:16:32:64-S128"
target triple = "x86_64-pc-linux-gnu"

; Function Attrs: inlinehint mustprogress nounwind uwtable
define internal noundef i32 @_ZN11flatbuffersL13GetRegionTypeEN10reflection8BaseTypeE(i32 noundef %0) #9 {
  %2 = alloca i32, align 4
  %3 = alloca i32, align 4
  store i32 %0, ptr %3, align 4, !tbaa !179
  %4 = load i32, ptr %3, align 4, !tbaa !179
  switch i32 %4, label %17 [
    i32 1, label %5
    i32 2, label %6
    i32 3, label %7
    i32 4, label %8
    i32 5, label %9
    i32 6, label %10
    i32 7, label %11
    i32 8, label %12
    i32 9, label %13
    i32 10, label %14
    i32 11, label %15
    i32 12, label %16
  ]

5:                                                ; preds = %1
  store i32 17, ptr %2, align 4
  br label %18

6:                                                ; preds = %1
  store i32 7, ptr %2, align 4
  br label %18

7:                                                ; preds = %1
  store i32 7, ptr %2, align 4
  br label %18

8:                                                ; preds = %1
  store i32 7, ptr %2, align 4
  br label %18

9:                                                ; preds = %1
  store i32 10, ptr %2, align 4
  br label %18

10:                                               ; preds = %1
  store i32 9, ptr %2, align 4
  br label %18

11:                                               ; preds = %1
  store i32 11, ptr %2, align 4
  br label %18

12:                                               ; preds = %1
  store i32 11, ptr %2, align 4
  br label %18

13:                                               ; preds = %1
  store i32 14, ptr %2, align 4
  br label %18

14:                                               ; preds = %1
  store i32 13, ptr %2, align 4
  br label %18

15:                                               ; preds = %1
  store i32 15, ptr %2, align 4
  br label %18

16:                                               ; preds = %1
  store i32 16, ptr %2, align 4
  br label %18

17:                                               ; preds = %1
  store i32 0, ptr %2, align 4
  br label %18

18:                                               ; preds = %17, %16, %15, %14, %13, %12, %11, %10, %9, %8, %7, %6, %5
  %19 = load i32, ptr %2, align 4
  ret i32 %19
}