; Function Attrs: inlinehint mustprogress nofree norecurse nosync nounwind willreturn memory(none) uwtable
define internal fastcc noundef range(i32 0, 18) i32 @_ZN11flatbuffersL13GetRegionTypeEN10reflection8BaseTypeE(i32 noundef %0) unnamed_addr #10 {
  %switch.tableidx = add i32 %0, -1
  %2 = icmp ult i32 %switch.tableidx, 12
  br i1 %2, label %switch.lookup, label %4

switch.lookup:                                    ; preds = %1
  %3 = zext nneg i32 %switch.tableidx to i64
  %switch.gep = getelementptr inbounds nuw [12 x i32], ptr @"switch.table._ZZN11flatbuffers15BinaryAnnotator11BuildStructEmRSt6vectorINS_12BinaryRegionESaIS2_EENSt7__cxx1112basic_stringIcSt11char_traitsIcESaIcEEEPKN10reflection6ObjectEENK3$_0clEPKNSC_5FieldE.26", i64 0, i64 %3
  %switch.load = load i32, ptr %switch.gep, align 4
  br label %4

4:                                                ; preds = %1, %switch.lookup
  %.0 = phi i32 [ %switch.load, %switch.lookup ], [ 0, %1 ]
  ret i32 %.0
}